target datalayout = "e-m:e-p270:32:32-p271:32:32-p272:64:64-i64:64-i128:128-f80:128-n8:16:32:64-S128"
target triple = "x86_64-pc-linux-gnu"

%struct.XML_Parser_Struct = type { i32, ptr, ptr, ptr, ptr, ptr, ptr, ptr, ptr, ptr, ptr, ptr, ptr, ptr, ptr }

@.str.7 = private unnamed_addr constant [6 x i8] c"</%s>\00", align 1

; Function Attrs: nounwind uwtable
define internal void @end_element_handler(ptr noundef %0, ptr noundef %1) #0 {
  %3 = alloca ptr, align 8
  %4 = alloca ptr, align 8
  %5 = alloca ptr, align 8
  %6 = alloca ptr, align 8
  %7 = alloca i32, align 4
  store ptr %0, ptr %3, align 8, !tbaa !53
  store ptr %1, ptr %4, align 8, !tbaa !4
  call void @llvm.lifetime.start.p0(i64 8, ptr %5) #8
  %8 = load ptr, ptr %3, align 8, !tbaa !53
  store ptr %8, ptr %5, align 8, !tbaa !11
  %9 = load ptr, ptr %5, align 8, !tbaa !11
  %10 = getelementptr inbounds nuw %struct.XML_Parser_Struct, ptr %9, i32 0, i32 5
  %11 = load ptr, ptr %10, align 8, !tbaa !56
  %12 = icmp eq ptr %11, null
  br i1 %12, label %13, label %33

13:                                               ; preds = %2
  %14 = load ptr, ptr %5, align 8, !tbaa !11
  %15 = getelementptr inbounds nuw %struct.XML_Parser_Struct, ptr %14, i32 0, i32 9
  %16 = load ptr, ptr %15, align 8, !tbaa !60
  %17 = icmp ne ptr %16, null
  br i1 %17, label %18, label %32

18:                                               ; preds = %13
  call void @llvm.lifetime.start.p0(i64 8, ptr %6) #8
  %19 = load ptr, ptr %4, align 8, !tbaa !4
  %20 = call i64 (ptr, i64, ptr, ...) @zend_spprintf(ptr noundef %6, i64 noundef 0, ptr noundef @.str.7, ptr noundef %19)
  %21 = load ptr, ptr %5, align 8, !tbaa !11
  %22 = getelementptr inbounds nuw %struct.XML_Parser_Struct, ptr %21, i32 0, i32 9
  %23 = load ptr, ptr %22, align 8, !tbaa !60
  %24 = load ptr, ptr %5, align 8, !tbaa !11
  %25 = getelementptr inbounds nuw %struct.XML_Parser_Struct, ptr %24, i32 0, i32 2
  %26 = load ptr, ptr %25, align 8, !tbaa !54
  %27 = load ptr, ptr %6, align 8, !tbaa !4
  %28 = load ptr, ptr %6, align 8, !tbaa !4
  %29 = call i64 @strlen(ptr noundef %28) #9
  %30 = trunc i64 %29 to i32
  call void %23(ptr noundef %26, ptr noundef %27, i32 noundef %30)
  %31 = load ptr, ptr %6, align 8, !tbaa !4
  call void @_efree(ptr noundef %31)
  call void @llvm.lifetime.end.p0(i64 8, ptr %6) #8
  br label %32

32:                                               ; preds = %18, %13
  store i32 1, ptr %7, align 4
  br label %41

33:                                               ; preds = %2
  %34 = load ptr, ptr %5, align 8, !tbaa !11
  %35 = getelementptr inbounds nuw %struct.XML_Parser_Struct, ptr %34, i32 0, i32 5
  %36 = load ptr, ptr %35, align 8, !tbaa !56
  %37 = load ptr, ptr %5, align 8, !tbaa !11
  %38 = getelementptr inbounds nuw %struct.XML_Parser_Struct, ptr %37, i32 0, i32 2
  %39 = load ptr, ptr %38, align 8, !tbaa !54
  %40 = load ptr, ptr %4, align 8, !tbaa !4
  call void %36(ptr noundef %39, ptr noundef %40)
  store i32 0, ptr %7, align 4
  br label %41

41:                                               ; preds = %33, %32
  call void @llvm.lifetime.end.p0(i64 8, ptr %5) #8
  %42 = load i32, ptr %7, align 4
  switch i32 %42, label %44 [
    i32 0, label %43
    i32 1, label %43
  ]

43:                                               ; preds = %41, %41
  ret void

44:                                               ; preds = %41
  unreachable
}