; Function Attrs: nounwind uwtable
define internal void @end_element_handler(ptr noundef readonly captures(none) %0, ptr noundef %1) #0 {
  %3 = alloca ptr, align 8
  %4 = getelementptr inbounds nuw i8, ptr %0, i64 40
  %5 = load ptr, ptr %4, align 8, !tbaa !49
  %6 = icmp eq ptr %5, null
  br i1 %6, label %7, label %19

7:                                                ; preds = %2
  %8 = getelementptr inbounds nuw i8, ptr %0, i64 72
  %9 = load ptr, ptr %8, align 8, !tbaa !53
  %.not = icmp eq ptr %9, null
  br i1 %.not, label %22, label %10

10:                                               ; preds = %7
  call void @llvm.lifetime.start.p0(i64 8, ptr nonnull %3) #11
  %11 = call i64 (ptr, i64, ptr, ...) @zend_spprintf(ptr noundef nonnull %3, i64 noundef 0, ptr noundef nonnull @.str.7, ptr noundef %1) #11
  %12 = load ptr, ptr %8, align 8, !tbaa !53
  %13 = getelementptr inbounds nuw i8, ptr %0, i64 16
  %14 = load ptr, ptr %13, align 8, !tbaa !47
  %15 = load ptr, ptr %3, align 8, !tbaa !61
  %16 = call i64 @strlen(ptr noundef nonnull dereferenceable(1) %15) #12
  %17 = trunc i64 %16 to i32
  call void %12(ptr noundef %14, ptr noundef nonnull %15, i32 noundef %17) #11
  %18 = load ptr, ptr %3, align 8, !tbaa !61
  call void @_efree(ptr noundef %18) #11
  call void @llvm.lifetime.end.p0(i64 8, ptr nonnull %3) #11
  br label %22

19:                                               ; preds = %2
  %20 = getelementptr inbounds nuw i8, ptr %0, i64 16
  %21 = load ptr, ptr %20, align 8, !tbaa !47
  tail call void %5(ptr noundef %21, ptr noundef %1) #11
  br label %22

22:                                               ; preds = %7, %10, %19
  ret void
}